;--------------------------------------------------------
; File Created by SDCC : free open source ANSI-C Compiler
; Version 4.1.6 #12539 (MINGW32)
;--------------------------------------------------------
	.module main
	.optsdcc -mgbz80
	
;--------------------------------------------------------
; Public variables in this module
;--------------------------------------------------------
	.globl _main
	.globl _JoypadInput
	.globl _SetupBread
	.globl _SetupGlass
	.globl _SetupBird
	.globl _GlassMove
	.globl _MoveGameCharacter
	.globl _CheckCollisions
	.globl _set_sprite_data
	.globl _set_bkg_tiles
	.globl _set_bkg_data
	.globl _wait_vbl_done
	.globl _joypad
	.globl _energy
	.globl _breads
	.globl _gameOver
	.globl _score
	.globl _spritesize
	.globl _BackgroundTileMap
	.globl _BackgroundTileSet
	.globl _sprites
	.globl _bread
	.globl _glass
	.globl _bird
;--------------------------------------------------------
; special function registers
;--------------------------------------------------------
;--------------------------------------------------------
; ram data
;--------------------------------------------------------
	.area _DATA
_bird::
	.ds 8
_glass::
	.ds 8
_bread::
	.ds 8
;--------------------------------------------------------
; ram data
;--------------------------------------------------------
	.area _INITIALIZED
_sprites::
	.ds 128
_BackgroundTileSet::
	.ds 96
_BackgroundTileMap::
	.ds 576
_spritesize::
	.ds 1
_score::
	.ds 1
_gameOver::
	.ds 1
_breads::
	.ds 1
_energy::
	.ds 1
;--------------------------------------------------------
; absolute external ram data
;--------------------------------------------------------
	.area _DABS (ABS)
;--------------------------------------------------------
; global & static initialisations
;--------------------------------------------------------
	.area _HOME
	.area _GSINIT
	.area _GSFINAL
	.area _GSINIT
;--------------------------------------------------------
; Home
;--------------------------------------------------------
	.area _HOME
	.area _HOME
;--------------------------------------------------------
; code
;--------------------------------------------------------
	.area _CODE
;main.c:21: UBYTE CheckCollisions(GameCharacter* one, GameCharacter* two)
;	---------------------------------
; Function CheckCollisions
; ---------------------------------
_CheckCollisions::
	add	sp, #-16
;main.c:23: return (one->x >= two->x && one->x <= two->x + two->width) && (one->y >= two->y && one->y <= two->y + two->height) || (two->x >= one->x && two->x <= one->x + one->width) && (two->y >= one->y && two->y <= one->y + one->height);
	ldhl	sp,	#18
	ld	a, (hl)
	ldhl	sp,	#2
	ld	(hl), a
	ldhl	sp,	#19
	ld	a, (hl)
	ldhl	sp,	#3
	ld	(hl-), a
	ld	a, (hl+)
	ld	e, a
	ld	d, (hl)
	ld	hl, #0x0004
	add	hl, de
	ld	c, l
	ld	b, h
	ld	a, (bc)
	ldhl	sp,	#4
	ld	(hl), a
	ldhl	sp,	#20
	ld	a, (hl)
	ldhl	sp,	#0
	ld	(hl), a
	ldhl	sp,	#21
	ld	a, (hl)
	ldhl	sp,	#1
	ld	(hl), a
	pop	de
	push	de
	ld	hl, #0x0004
	add	hl, de
	ld	c, l
	ld	b, h
	ld	a, (bc)
	ldhl	sp,	#5
	ld	(hl), a
	ld	a, (hl+)
	ld	(hl+), a
	ld	(hl), #0x00
	ldhl	sp,	#4
	ld	a, (hl)
	ldhl	sp,	#8
	ld	(hl+), a
	ld	(hl), #0x00
	ldhl	sp,#2
	ld	a, (hl+)
	ld	e, a
	ld	d, (hl)
	ld	hl, #0x0005
	add	hl, de
	push	hl
	ld	a, l
	ldhl	sp,	#12
	ld	(hl), a
	pop	hl
	ld	a, h
	ldhl	sp,	#11
	ld	(hl), a
	pop	de
	push	de
	ld	hl, #0x0005
	add	hl, de
	push	hl
	ld	a, l
	ldhl	sp,	#14
	ld	(hl), a
	pop	hl
	ld	a, h
	ldhl	sp,	#13
	ld	(hl), a
	ldhl	sp,	#4
	ld	a, (hl+)
	sub	a, (hl)
	jr	C, 00108$
	pop	de
	push	de
	ld	hl, #0x0006
	add	hl, de
	ld	c, l
	ld	b, h
	ld	a, (bc)
	ld	d, #0x00
	ld	e, a
	ldhl	sp,	#6
	ld	a,	(hl+)
	ld	h, (hl)
	ld	l, a
	add	hl, de
	ld	c, l
	ld	b, h
	ldhl	sp,	#8
	ld	a, c
	sub	a, (hl)
	inc	hl
	ld	a, b
	sbc	a, (hl)
	ld	a, b
	ld	d, a
	bit	7, (hl)
	jr	Z, 00152$
	bit	7, d
	jr	NZ, 00153$
	cp	a, a
	jr	00153$
00152$:
	bit	7, d
	jr	Z, 00153$
	scf
00153$:
	jr	C, 00108$
	ldhl	sp,#10
	ld	a, (hl+)
	ld	e, a
	ld	d, (hl)
	ld	a, (de)
	ldhl	sp,	#15
	ld	(hl-), a
	dec	hl
	dec	hl
	ld	a, (hl+)
	ld	e, a
	ld	a, (hl+)
	inc	hl
	ld	d, a
	ld	a, (de)
	ld	c, a
	ld	a, (hl)
	sub	a, c
	jr	C, 00108$
	ld	b, #0x00
	pop	de
	push	de
	ld	hl, #0x0007
	add	hl, de
	ld	e, l
	ld	d, h
	ld	a, (de)
	ld	l, a
;	spillPairReg hl
;	spillPairReg hl
	ld	h, #0x00
;	spillPairReg hl
;	spillPairReg hl
	add	hl, bc
	ld	c, l
	ld	b, h
	ldhl	sp,	#15
	ld	a, (hl-)
	ld	(hl+), a
	xor	a, a
	ld	(hl-), a
	ld	a, c
	sub	a, (hl)
	inc	hl
	ld	a, b
	sbc	a, (hl)
	ld	a, b
	ld	d, a
	bit	7, (hl)
	jr	Z, 00154$
	bit	7, d
	jr	NZ, 00155$
	cp	a, a
	jr	00155$
00154$:
	bit	7, d
	jr	Z, 00155$
	scf
00155$:
	jp	NC, 00104$
00108$:
	ldhl	sp,	#5
	ld	a, (hl-)
	sub	a, (hl)
	jp	C, 00103$
	dec	hl
	dec	hl
	ld	a, (hl+)
	ld	e, a
	ld	d, (hl)
	ld	hl, #0x0006
	add	hl, de
	ld	c, l
	ld	b, h
	ld	a, (bc)
	ld	d, #0x00
	ld	e, a
	ldhl	sp,	#8
	ld	a,	(hl+)
	ld	h, (hl)
	ld	l, a
	add	hl, de
	ld	c, l
	ld	b, h
	ldhl	sp,	#6
	ld	a, c
	sub	a, (hl)
	inc	hl
	ld	a, b
	sbc	a, (hl)
	ld	a, b
	ld	d, a
	bit	7, (hl)
	jr	Z, 00156$
	bit	7, d
	jr	NZ, 00157$
	cp	a, a
	jr	00157$
00156$:
	bit	7, d
	jr	Z, 00157$
	scf
00157$:
	jr	C, 00103$
	ldhl	sp,#12
	ld	a, (hl+)
	ld	e, a
	ld	a, (hl+)
	inc	hl
	ld	d, a
	ld	a, (de)
	ld	(hl), a
	ldhl	sp,#10
	ld	a, (hl+)
	ld	e, a
	ld	d, (hl)
	ld	a, (de)
	ld	c, a
	ldhl	sp,	#15
	ld	a, (hl)
	sub	a, c
	jr	C, 00103$
	ldhl	sp,	#11
	ld	a, c
	ld	(hl+), a
	ld	(hl), #0x00
	ldhl	sp,#2
	ld	a, (hl+)
	ld	e, a
	ld	d, (hl)
	ld	hl, #0x0007
	add	hl, de
	push	hl
	ld	a, l
	ldhl	sp,	#15
	ld	(hl), a
	pop	hl
	ld	a, h
	ldhl	sp,	#14
	ld	(hl-), a
	ld	a, (hl+)
	ld	e, a
	ld	d, (hl)
	ld	a, (de)
	ld	(hl), a
	ld	a, (hl-)
	ld	(hl+), a
	xor	a, a
	ld	(hl-), a
	ld	a, (hl+)
	ld	e, a
	ld	d, (hl)
	ldhl	sp,	#11
	ld	a,	(hl+)
	ld	h, (hl)
	ld	l, a
	add	hl, de
	push	hl
	ld	a, l
	ldhl	sp,	#11
	ld	(hl), a
	pop	hl
	ld	a, h
	ldhl	sp,	#10
	ld	(hl), a
	ldhl	sp,	#15
	ld	a, (hl-)
	ld	(hl+), a
	ld	(hl), #0x00
	ldhl	sp,	#9
	ld	e, l
	ld	d, h
	ldhl	sp,	#14
	ld	a, (de)
	inc	de
	sub	a, (hl)
	inc	hl
	ld	a, (de)
	sbc	a, (hl)
	ld	a, (de)
	ld	d, a
	bit	7, (hl)
	jr	Z, 00158$
	bit	7, d
	jr	NZ, 00159$
	cp	a, a
	jr	00159$
00158$:
	bit	7, d
	jr	Z, 00159$
	scf
00159$:
	jr	NC, 00104$
00103$:
	ldhl	sp,	#15
	ld	(hl), #0x00
	jr	00105$
00104$:
	ldhl	sp,	#15
	ld	(hl), #0x01
00105$:
	ldhl	sp,	#15
	ld	e, (hl)
;main.c:24: }
	add	sp, #16
	ret
;main.c:26: void MoveGameCharacter(GameCharacter* character, uint8_t x, uint8_t y)
;	---------------------------------
; Function MoveGameCharacter
; ---------------------------------
_MoveGameCharacter::
	add	sp, #-3
;main.c:28: move_sprite(character->spritids[0], x, y);
	ldhl	sp,	#8
	ld	a, (hl)
	ldhl	sp,	#0
	ld	(hl), a
	ldhl	sp,	#7
	ld	a, (hl)
	ldhl	sp,	#1
	ld	(hl), a
	ldhl	sp,	#5
	ld	a, (hl+)
	ld	e, a
	ld	d, (hl)
	ld	a, (de)
;C:/gbdk/include/gb/gb.h:1520: OAM_item_t * itm = &shadow_OAM[nb];
	ld	l, a
;	spillPairReg hl
;	spillPairReg hl
	ld	h, #0x00
;	spillPairReg hl
;	spillPairReg hl
	add	hl, hl
	add	hl, hl
	ld	bc, #_shadow_OAM
	add	hl, bc
	ld	c, l
	ld	b, h
;C:/gbdk/include/gb/gb.h:1521: itm->y=y, itm->x=x;
	ldhl	sp,	#0
	ld	a, (hl+)
	ld	(bc), a
	inc	bc
	ld	a, (hl)
	ld	(bc), a
;main.c:29: move_sprite(character->spritids[1], x + spritesize, y);
	ld	a, (hl)
	ld	hl, #_spritesize
	add	a, (hl)
	ld	l, e
;	spillPairReg hl
;	spillPairReg hl
	ld	h, d
;	spillPairReg hl
;	spillPairReg hl
	inc	hl
	ld	c, (hl)
	ldhl	sp,	#2
	ld	(hl), a
;C:/gbdk/include/gb/gb.h:1520: OAM_item_t * itm = &shadow_OAM[nb];
	ld	l, c
;	spillPairReg hl
;	spillPairReg hl
	ld	h, #0x00
;	spillPairReg hl
;	spillPairReg hl
	add	hl, hl
	add	hl, hl
	ld	bc, #_shadow_OAM
	add	hl, bc
	ld	c, l
	ld	b, h
;C:/gbdk/include/gb/gb.h:1521: itm->y=y, itm->x=x;
	ldhl	sp,	#0
	ld	a, (hl+)
	inc	hl
	ld	(bc), a
	inc	bc
;main.c:30: move_sprite(character->spritids[2], x, y + spritesize);
	ld	a, (hl-)
	dec	hl
	ld	(bc), a
	ld	a, (hl)
	ld	hl, #_spritesize
	add	a, (hl)
	ld	c, a
	ld	l, e
;	spillPairReg hl
;	spillPairReg hl
	ld	h, d
;	spillPairReg hl
;	spillPairReg hl
	inc	hl
	inc	hl
;C:/gbdk/include/gb/gb.h:1520: OAM_item_t * itm = &shadow_OAM[nb];
	ld	l, (hl)
;	spillPairReg hl
;	spillPairReg hl
	ld	h, #0x00
;	spillPairReg hl
;	spillPairReg hl
	add	hl, hl
	add	hl, hl
	push	de
	ld	de, #_shadow_OAM
	add	hl, de
	pop	de
;C:/gbdk/include/gb/gb.h:1521: itm->y=y, itm->x=x;
	ld	a, c
	ld	(hl+), a
	ld	c, l
	ld	b, h
	ldhl	sp,	#1
;main.c:31: move_sprite(character->spritids[3], x + spritesize, y + spritesize);
	ld	a, (hl-)
	ld	(bc), a
	ld	a, (hl)
	ld	hl, #_spritesize
	add	a, (hl)
	ld	b, a
	ldhl	sp,	#1
	ld	a, (hl)
	ld	hl, #_spritesize
	add	a, (hl)
	ld	c, a
	inc	de
	inc	de
	inc	de
	ld	a, (de)
;C:/gbdk/include/gb/gb.h:1520: OAM_item_t * itm = &shadow_OAM[nb];
	ld	l, a
;	spillPairReg hl
;	spillPairReg hl
	ld	h, #0x00
;	spillPairReg hl
;	spillPairReg hl
	add	hl, hl
	add	hl, hl
	ld	de, #_shadow_OAM
	add	hl, de
;C:/gbdk/include/gb/gb.h:1521: itm->y=y, itm->x=x;
	ld	a, b
	ld	(hl+), a
	ld	(hl), c
;main.c:31: move_sprite(character->spritids[3], x + spritesize, y + spritesize);
;main.c:32: }
	add	sp, #3
	ret
;main.c:34: void GlassMove(GameCharacter* character, uint8_t x, uint8_t y)
;	---------------------------------
; Function GlassMove
; ---------------------------------
_GlassMove::
	dec	sp
	dec	sp
;main.c:36: move_sprite(character->spritids[0], x, y);
	ldhl	sp,	#7
	ld	a, (hl)
	ldhl	sp,	#0
	ld	(hl), a
	ldhl	sp,	#6
	ld	a, (hl)
	ldhl	sp,	#1
	ld	(hl), a
	ldhl	sp,	#4
	ld	a, (hl+)
	ld	e, a
	ld	d, (hl)
	ld	a, (de)
;C:/gbdk/include/gb/gb.h:1520: OAM_item_t * itm = &shadow_OAM[nb];
	ld	l, a
;	spillPairReg hl
;	spillPairReg hl
	ld	h, #0x00
;	spillPairReg hl
;	spillPairReg hl
	add	hl, hl
	add	hl, hl
	ld	bc, #_shadow_OAM
	add	hl, bc
	ld	c, l
	ld	b, h
;C:/gbdk/include/gb/gb.h:1521: itm->y=y, itm->x=x;
	ldhl	sp,	#0
	ld	a, (hl+)
	ld	(bc), a
	inc	bc
;main.c:37: move_sprite(character->spritids[1], x, y + spritesize);
	ld	a, (hl-)
	ld	(bc), a
	ld	a, (hl)
	ld	hl, #_spritesize
	add	a, (hl)
	ld	c, a
	inc	de
	ld	a, (de)
;C:/gbdk/include/gb/gb.h:1520: OAM_item_t * itm = &shadow_OAM[nb];
	ld	l, a
	ld	de, #_shadow_OAM+0
;	spillPairReg hl
;	spillPairReg hl
	ld	h, #0x00
;	spillPairReg hl
;	spillPairReg hl
	add	hl, hl
	add	hl, hl
	add	hl, de
;C:/gbdk/include/gb/gb.h:1521: itm->y=y, itm->x=x;
	ld	a, c
	ld	(hl+), a
	ld	c, l
	ld	b, h
	ldhl	sp,	#1
	ld	a, (hl)
	ld	(bc), a
;main.c:37: move_sprite(character->spritids[1], x, y + spritesize);
;main.c:38: }
	inc	sp
	inc	sp
	ret
;main.c:40: void SetupBird()
;	---------------------------------
; Function SetupBird
; ---------------------------------
_SetupBird::
;main.c:42: bird.x = 20;
	ld	bc, #_bird+0
	ld	hl, #(_bird + 4)
	ld	(hl), #0x14
;main.c:43: bird.y = 80;
	ld	hl, #(_bird + 5)
	ld	(hl), #0x50
;main.c:44: bird.width = 16;
	ld	hl, #(_bird + 6)
	ld	(hl), #0x10
;main.c:45: bird.height = 16;
	ld	hl, #(_bird + 7)
	ld	(hl), #0x10
;C:/gbdk/include/gb/gb.h:1447: shadow_OAM[nb].tile=tile;
	ld	hl, #(_shadow_OAM + 2)
	ld	(hl), #0x00
;main.c:48: bird.spritids[0] = 0;
	xor	a, a
	ld	(bc), a
;C:/gbdk/include/gb/gb.h:1447: shadow_OAM[nb].tile=tile;
	ld	hl, #(_shadow_OAM + 6)
	ld	(hl), #0x01
;main.c:50: bird.spritids[1] = 1;
	ld	hl, #(_bird + 1)
	ld	(hl), #0x01
;C:/gbdk/include/gb/gb.h:1447: shadow_OAM[nb].tile=tile;
	ld	hl, #(_shadow_OAM + 10)
	ld	(hl), #0x02
;main.c:52: bird.spritids[2] = 2;
	ld	hl, #(_bird + 2)
	ld	(hl), #0x02
;C:/gbdk/include/gb/gb.h:1447: shadow_OAM[nb].tile=tile;
	ld	hl, #(_shadow_OAM + 14)
	ld	(hl), #0x03
;main.c:54: bird.spritids[3] = 3;
	ld	hl, #(_bird + 3)
	ld	(hl), #0x03
;main.c:56: MoveGameCharacter(&bird, bird.x, bird.y);
	ld	a, (#(_bird + 5) + 0)
	ld	hl, #(_bird + 4)
	ld	h, (hl)
;	spillPairReg hl
	push	af
	inc	sp
	push	hl
	inc	sp
	push	bc
	call	_MoveGameCharacter
	add	sp, #4
;main.c:57: }
	ret
;main.c:59: void SetupGlass()
;	---------------------------------
; Function SetupGlass
; ---------------------------------
_SetupGlass::
;main.c:61: glass.x = 180;
	ld	hl, #(_glass + 4)
	ld	(hl), #0xb4
;main.c:62: glass.y = bird.y;
	ld	hl, #(_bird + 5)
	ld	b, (hl)
	ld	hl, #(_glass + 5)
	ld	(hl), b
;main.c:63: glass.width = 8;
	ld	hl, #(_glass + 6)
	ld	(hl), #0x08
;main.c:64: glass.height = 16;
	ld	hl, #(_glass + 7)
	ld	(hl), #0x10
;C:/gbdk/include/gb/gb.h:1447: shadow_OAM[nb].tile=tile;
	ld	hl, #(_shadow_OAM + 18)
	ld	(hl), #0x04
;main.c:67: glass.spritids[0] = 4;
	ld	hl, #_glass
	ld	(hl), #0x04
;C:/gbdk/include/gb/gb.h:1447: shadow_OAM[nb].tile=tile;
	ld	hl, #(_shadow_OAM + 22)
	ld	(hl), #0x04
;main.c:69: glass.spritids[1] = 5;
	ld	hl, #(_glass + 1)
	ld	(hl), #0x05
;C:/gbdk/include/gb/gb.h:1493: shadow_OAM[nb].prop=prop;
	ld	hl, #(_shadow_OAM + 23)
	ld	(hl), #0x40
;main.c:73: GlassMove(&glass, glass.x, glass.y);
	ld	a, (#(_glass + 4) + 0)
	push	bc
	inc	sp
	push	af
	inc	sp
	ld	de, #_glass
	push	de
	call	_GlassMove
	add	sp, #4
;main.c:74: }
	ret
;main.c:76: void SetupBread()
;	---------------------------------
; Function SetupBread
; ---------------------------------
_SetupBread::
	dec	sp
;main.c:78: bread.x = 180;
	ld	hl, #(_bread + 4)
	ld	(hl), #0xb4
;main.c:79: bread.y = 0;
	ld	bc, #_bread + 5
	xor	a, a
	ld	(bc), a
;main.c:80: bread.width = 8;
	ld	hl, #(_bread + 6)
	ld	(hl), #0x08
;main.c:81: bread.height = 8;
	ld	hl, #(_bread + 7)
	ld	(hl), #0x08
;C:/gbdk/include/gb/gb.h:1447: shadow_OAM[nb].tile=tile;
	ld	hl, #(_shadow_OAM + 30)
	ld	(hl), #0x05
;main.c:84: bread.spritids[0] = 67;
	ld	hl, #_bread
	ld	(hl), #0x43
;main.c:85: move_sprite(bread.spritids[0], bread.x, bread.y);
	ld	a, (bc)
	ld	b, a
	ld	hl, #(_bread + 4)
	ld	c, (hl)
	ld	a, (#_bread + 0)
;C:/gbdk/include/gb/gb.h:1520: OAM_item_t * itm = &shadow_OAM[nb];
	ldhl	sp,#0
	ld	(hl), a
	ld	e, (hl)
	ld	d, #0x00
	ld	l, e
	ld	h, d
	add	hl, hl
	add	hl, hl
	ld	de, #_shadow_OAM
	add	hl, de
;C:/gbdk/include/gb/gb.h:1521: itm->y=y, itm->x=x;
	ld	a, b
	ld	(hl+), a
	ld	(hl), c
;main.c:85: move_sprite(bread.spritids[0], bread.x, bread.y);
;main.c:86: }
	inc	sp
	ret
;main.c:88: void JoypadInput()
;	---------------------------------
; Function JoypadInput
; ---------------------------------
_JoypadInput::
;main.c:90: if (gameOver == 0)
	ld	a, (#_gameOver)
	or	a, a
	jr	NZ, 00106$
;main.c:92: if (joypad() & J_UP){
	call	_joypad
	bit	2, e
	jr	Z, 00102$
;main.c:93: bird.y -= 2;
	ld	hl, #_bird + 5
	ld	a, (hl)
	dec	a
	dec	a
	ld	(hl), a
;main.c:94: MoveGameCharacter(&bird, bird.x, bird.y);
	ld	h, (hl)
	ld	a, (#(_bird + 4) + 0)
;	spillPairReg hl
;	spillPairReg hl
	push	hl
	inc	sp
	push	af
	inc	sp
	ld	de, #_bird
	push	de
	call	_MoveGameCharacter
	add	sp, #4
00102$:
;main.c:96: if (joypad() & J_DOWN){
	call	_joypad
	bit	3, e
	ret	Z
;main.c:97: bird.y += 2;
	ld	hl, #_bird + 5
	ld	a, (hl)
	add	a, #0x02
	ld	(hl), a
;main.c:98: MoveGameCharacter(&bird, bird.x, bird.y);
	ld	h, (hl)
	ld	a, (#(_bird + 4) + 0)
;	spillPairReg hl
;	spillPairReg hl
	push	hl
	inc	sp
	push	af
	inc	sp
	ld	de, #_bird
	push	de
	call	_MoveGameCharacter
	add	sp, #4
	ret
00106$:
;main.c:103: bird.y += 2;
	ld	hl, #_bird + 5
	ld	a, (hl)
	add	a, #0x02
	ld	(hl), a
;main.c:104: MoveGameCharacter(&bird, bird.x, bird.y);
	ld	b, (hl)
	ld	a, (#(_bird + 4) + 0)
	push	bc
	inc	sp
	push	af
	inc	sp
	ld	de, #_bird
	push	de
	call	_MoveGameCharacter
	add	sp, #4
;main.c:106: }
	ret
;main.c:108: void main() 
;	---------------------------------
; Function main
; ---------------------------------
_main::
	dec	sp
;main.c:110: SPRITES_8x8;
	ldh	a, (_LCDC_REG + 0)
	and	a, #0xfb
	ldh	(_LCDC_REG + 0), a
;main.c:111: set_sprite_data(0,6, sprites);
	ld	de, #_sprites
	push	de
	ld	hl, #0x600
	push	hl
	call	_set_sprite_data
	add	sp, #4
;main.c:112: SetupBird();
	call	_SetupBird
;main.c:113: SetupGlass();
	call	_SetupGlass
;main.c:114: set_bkg_data(0,6, BackgroundTileSet);
	ld	de, #_BackgroundTileSet
	push	de
	ld	hl, #0x600
	push	hl
	call	_set_bkg_data
	add	sp, #4
;main.c:115: set_bkg_tiles(0,0, BackgroundTileMapWidth, BackgroundTileMapHeight, BackgroundTileMap);
	ld	de, #_BackgroundTileMap
	push	de
	ld	hl, #0x1220
	push	hl
	xor	a, a
	rrca
	push	af
	call	_set_bkg_tiles
	add	sp, #6
;main.c:117: SHOW_BKG;
	ldh	a, (_LCDC_REG + 0)
	or	a, #0x01
	ldh	(_LCDC_REG + 0), a
;main.c:118: SHOW_SPRITES;
	ldh	a, (_LCDC_REG + 0)
	or	a, #0x02
	ldh	(_LCDC_REG + 0), a
;main.c:119: DISPLAY_ON;
	ldh	a, (_LCDC_REG + 0)
	or	a, #0x80
	ldh	(_LCDC_REG + 0), a
;main.c:121: while (1)
00112$:
;C:/gbdk/include/gb/gb.h:1094: SCX_REG+=x, SCY_REG+=y;
	ldh	a, (_SCX_REG + 0)
	inc	a
	ldh	(_SCX_REG + 0), a
;main.c:124: JoypadInput();
	call	_JoypadInput
;main.c:126: glass.x -= 2;
	ld	bc, #_glass + 4
	ld	a, (bc)
	dec	a
	dec	a
	ld	(bc), a
;main.c:128: if (glass.x <= 0)
	ld	a, (bc)
;main.c:132: glass.y = bird.y;
;main.c:128: if (glass.x <= 0)
	or	a, a
	jr	NZ, 00102$
;main.c:130: score += 1;
	ld	hl, #_score
	inc	(hl)
	ld	a, (hl)
;main.c:131: glass.x = 180;
	ld	a, #0xb4
	ld	(bc), a
;main.c:132: glass.y = bird.y;
	ld	a, (#(_bird + 5) + 0)
	ld	(#(_glass + 5)),a
00102$:
;main.c:134: if (gameOver == 0){
	ld	a, (#_gameOver)
	or	a, a
	jr	NZ, 00104$
;main.c:135: GlassMove(&glass, glass.x, glass.y);
	ld	hl, #(_glass + 5)
	ld	h, (hl)
;	spillPairReg hl
	ld	a, (bc)
	push	hl
	inc	sp
	push	af
	inc	sp
	ld	de, #_glass
	push	de
	call	_GlassMove
	add	sp, #4
00104$:
;main.c:138: bread.x -= 1;
	ld	bc, #_bread + 4
	ld	a, (bc)
	dec	a
	ld	(bc), a
;main.c:140: if (bread.x <= 0)
	ld	a, (bc)
;main.c:143: bread.y = bird.y + 8;
;main.c:140: if (bread.x <= 0)
	or	a, a
	jr	NZ, 00106$
;main.c:142: bread.x = 180;
	ld	a, #0xb4
	ld	(bc), a
;main.c:143: bread.y = bird.y + 8;
	ld	a, (#(_bird + 5) + 0)
	add	a, #0x08
	ld	(#(_bread + 5)),a
00106$:
;main.c:146: move_sprite(bread.spritids[0], bread.x, bread.y);
	ld	a, (#(_bread + 5) + 0)
	ldhl	sp,	#0
	ld	(hl), a
	ld	a, (bc)
	ld	c, a
	ld	hl, #_bread
;C:/gbdk/include/gb/gb.h:1520: OAM_item_t * itm = &shadow_OAM[nb];
	ld	l, (hl)
	ld	de, #_shadow_OAM+0
;	spillPairReg hl
;	spillPairReg hl
	ld	h, #0x00
;	spillPairReg hl
;	spillPairReg hl
	add	hl, hl
	add	hl, hl
	add	hl, de
	ld	e, l
	ld	d, h
;C:/gbdk/include/gb/gb.h:1521: itm->y=y, itm->x=x;
	ldhl	sp,	#0
	ld	a, (hl)
	ld	(de), a
	inc	de
	ld	a, c
	ld	(de), a
;main.c:148: if (CheckCollisions(&bird, &glass))
	ld	de, #_glass
	push	de
	ld	de, #_bird
	push	de
	call	_CheckCollisions
	add	sp, #4
	ld	a, e
	or	a, a
	jr	Z, 00108$
;main.c:150: bird.y += 2;
	ld	a, (#(_bird + 5) + 0)
	add	a, #0x02
	ld	(#(_bird + 5)),a
;main.c:151: gameOver = 1;
	ld	hl, #_gameOver
	ld	(hl), #0x01
00108$:
;main.c:154: if (CheckCollisions(&bird, &bread))
	ld	de, #_bread
	push	de
	ld	de, #_bird
	push	de
	call	_CheckCollisions
	add	sp, #4
	ld	a, e
	or	a, a
	jr	Z, 00110$
;main.c:156: breads += 1;
	ld	hl, #_breads
	inc	(hl)
	ld	a, (hl)
00110$:
;main.c:161: wait_vbl_done();
	call	_wait_vbl_done
	jp	00112$
;main.c:163: }
	inc	sp
	ret
	.area _CODE
	.area _INITIALIZER
__xinit__sprites:
	.db #0x00	; 0
	.db #0x00	; 0
	.db #0x00	; 0
	.db #0x00	; 0
	.db #0x00	; 0
	.db #0x00	; 0
	.db #0x00	; 0
	.db #0x00	; 0
	.db #0x01	; 1
	.db #0x01	; 1
	.db #0x01	; 1
	.db #0x01	; 1
	.db #0x02	; 2
	.db #0x03	; 3
	.db #0x04	; 4
	.db #0x07	; 7
	.db #0x00	; 0
	.db #0x00	; 0
	.db #0x00	; 0
	.db #0x00	; 0
	.db #0x00	; 0
	.db #0x00	; 0
	.db #0xf0	; 240
	.db #0xf0	; 240
	.db #0x88	; 136
	.db #0x78	; 120	'x'
	.db #0xbc	; 188
	.db #0x64	; 100	'd'
	.db #0x1e	; 30
	.db #0xe2	; 226
	.db #0x1c	; 28
	.db #0xfc	; 252
	.db #0x04	; 4
	.db #0x07	; 7
	.db #0x08	; 8
	.db #0x0f	; 15
	.db #0x09	; 9
	.db #0x0e	; 14
	.db #0x13	; 19
	.db #0x1c	; 28
	.db #0x23	; 35
	.db #0x3d	; 61
	.db #0x7e	; 126
	.db #0x63	; 99	'c'
	.db #0x0d	; 13
	.db #0x0f	; 15
	.db #0x06	; 6
	.db #0x06	; 6
	.db #0x90	; 144
	.db #0x70	; 112	'p'
	.db #0xe8	; 232
	.db #0x58	; 88	'X'
	.db #0xe8	; 232
	.db #0x58	; 88	'X'
	.db #0xc8	; 200
	.db #0xb8	; 184
	.db #0x90	; 144
	.db #0x70	; 112	'p'
	.db #0x60	; 96
	.db #0xe0	; 224
	.db #0x80	; 128
	.db #0x80	; 128
	.db #0xc0	; 192
	.db #0xc0	; 192
	.db #0xff	; 255
	.db #0xff	; 255
	.db #0xa1	; 161
	.db #0x81	; 129
	.db #0xc1	; 193
	.db #0x81	; 129
	.db #0x81	; 129
	.db #0x81	; 129
	.db #0x81	; 129
	.db #0x81	; 129
	.db #0x81	; 129
	.db #0x81	; 129
	.db #0x81	; 129
	.db #0x81	; 129
	.db #0x81	; 129
	.db #0x81	; 129
	.db #0x00	; 0
	.db #0x00	; 0
	.db #0x7e	; 126
	.db #0x7e	; 126
	.db #0xff	; 255
	.db #0x81	; 129
	.db #0xff	; 255
	.db #0x81	; 129
	.db #0x7e	; 126
	.db #0x42	; 66	'B'
	.db #0x7e	; 126
	.db #0x42	; 66	'B'
	.db #0x7e	; 126
	.db #0x42	; 66	'B'
	.db #0x7e	; 126
	.db #0x7e	; 126
	.db #0x00	; 0
	.db #0x00	; 0
	.db #0x00	; 0
	.db #0x00	; 0
	.db #0x00	; 0
	.db #0x00	; 0
	.db #0x00	; 0
	.db #0x00	; 0
	.db #0x00	; 0
	.db #0x00	; 0
	.db #0x00	; 0
	.db #0x00	; 0
	.db #0x00	; 0
	.db #0x00	; 0
	.db #0x00	; 0
	.db #0x00	; 0
	.db #0x00	; 0
	.db #0x00	; 0
	.db #0x00	; 0
	.db #0x00	; 0
	.db #0x00	; 0
	.db #0x00	; 0
	.db #0x00	; 0
	.db #0x00	; 0
	.db #0x00	; 0
	.db #0x00	; 0
	.db #0x00	; 0
	.db #0x00	; 0
	.db #0x00	; 0
	.db #0x00	; 0
	.db #0x00	; 0
	.db #0x00	; 0
__xinit__BackgroundTileSet:
	.db #0x00	; 0
	.db #0x00	; 0
	.db #0x00	; 0
	.db #0x00	; 0
	.db #0x00	; 0
	.db #0x00	; 0
	.db #0x00	; 0
	.db #0x00	; 0
	.db #0x00	; 0
	.db #0x00	; 0
	.db #0x00	; 0
	.db #0x00	; 0
	.db #0x00	; 0
	.db #0x00	; 0
	.db #0x00	; 0
	.db #0x00	; 0
	.db #0xff	; 255
	.db #0xfd	; 253
	.db #0xff	; 255
	.db #0xbf	; 191
	.db #0xff	; 255
	.db #0x5a	; 90	'Z'
	.db #0xff	; 255
	.db #0xef	; 239
	.db #0xff	; 255
	.db #0xfb	; 251
	.db #0xff	; 255
	.db #0xb6	; 182
	.db #0xff	; 255
	.db #0xaf	; 175
	.db #0xff	; 255
	.db #0xfd	; 253
	.db #0x01	; 1
	.db #0x01	; 1
	.db #0x02	; 2
	.db #0x02	; 2
	.db #0x04	; 4
	.db #0x04	; 4
	.db #0x08	; 8
	.db #0x08	; 8
	.db #0x10	; 16
	.db #0x10	; 16
	.db #0x20	; 32
	.db #0x20	; 32
	.db #0x40	; 64
	.db #0x40	; 64
	.db #0x80	; 128
	.db #0x80	; 128
	.db #0x00	; 0
	.db #0x00	; 0
	.db #0x00	; 0
	.db #0x00	; 0
	.db #0x00	; 0
	.db #0x00	; 0
	.db #0x00	; 0
	.db #0x00	; 0
	.db #0x18	; 24
	.db #0x18	; 24
	.db #0x24	; 36
	.db #0x24	; 36
	.db #0x42	; 66	'B'
	.db #0x42	; 66	'B'
	.db #0x81	; 129
	.db #0x81	; 129
	.db #0x81	; 129
	.db #0xff	; 255
	.db #0x81	; 129
	.db #0xff	; 255
	.db #0x42	; 66	'B'
	.db #0x7e	; 126
	.db #0x44	; 68	'D'
	.db #0x7c	; 124
	.db #0x24	; 36
	.db #0x3c	; 60
	.db #0x18	; 24
	.db #0x18	; 24
	.db #0x18	; 24
	.db #0x18	; 24
	.db #0x08	; 8
	.db #0x08	; 8
	.db #0x80	; 128
	.db #0x80	; 128
	.db #0x40	; 64
	.db #0x40	; 64
	.db #0x20	; 32
	.db #0x20	; 32
	.db #0x10	; 16
	.db #0x10	; 16
	.db #0x08	; 8
	.db #0x08	; 8
	.db #0x04	; 4
	.db #0x04	; 4
	.db #0x02	; 2
	.db #0x02	; 2
	.db #0x01	; 1
	.db #0x01	; 1
__xinit__BackgroundTileMap:
	.db #0x00	; 0
	.db #0x00	; 0
	.db #0x00	; 0
	.db #0x00	; 0
	.db #0x00	; 0
	.db #0x00	; 0
	.db #0x00	; 0
	.db #0x00	; 0
	.db #0x00	; 0
	.db #0x00	; 0
	.db #0x00	; 0
	.db #0x00	; 0
	.db #0x00	; 0
	.db #0x00	; 0
	.db #0x00	; 0
	.db #0x00	; 0
	.db #0x00	; 0
	.db #0x00	; 0
	.db #0x00	; 0
	.db #0x00	; 0
	.db #0x00	; 0
	.db #0x00	; 0
	.db #0x00	; 0
	.db #0x00	; 0
	.db #0x00	; 0
	.db #0x00	; 0
	.db #0x00	; 0
	.db #0x00	; 0
	.db #0x00	; 0
	.db #0x00	; 0
	.db #0x00	; 0
	.db #0x00	; 0
	.db #0x00	; 0
	.db #0x00	; 0
	.db #0x00	; 0
	.db #0x00	; 0
	.db #0x00	; 0
	.db #0x00	; 0
	.db #0x00	; 0
	.db #0x00	; 0
	.db #0x00	; 0
	.db #0x00	; 0
	.db #0x00	; 0
	.db #0x00	; 0
	.db #0x00	; 0
	.db #0x00	; 0
	.db #0x00	; 0
	.db #0x00	; 0
	.db #0x00	; 0
	.db #0x00	; 0
	.db #0x00	; 0
	.db #0x00	; 0
	.db #0x00	; 0
	.db #0x00	; 0
	.db #0x00	; 0
	.db #0x00	; 0
	.db #0x00	; 0
	.db #0x00	; 0
	.db #0x00	; 0
	.db #0x00	; 0
	.db #0x00	; 0
	.db #0x00	; 0
	.db #0x00	; 0
	.db #0x00	; 0
	.db #0x00	; 0
	.db #0x00	; 0
	.db #0x00	; 0
	.db #0x00	; 0
	.db #0x00	; 0
	.db #0x00	; 0
	.db #0x00	; 0
	.db #0x00	; 0
	.db #0x00	; 0
	.db #0x00	; 0
	.db #0x00	; 0
	.db #0x00	; 0
	.db #0x00	; 0
	.db #0x00	; 0
	.db #0x00	; 0
	.db #0x00	; 0
	.db #0x00	; 0
	.db #0x00	; 0
	.db #0x00	; 0
	.db #0x00	; 0
	.db #0x00	; 0
	.db #0x00	; 0
	.db #0x00	; 0
	.db #0x00	; 0
	.db #0x00	; 0
	.db #0x00	; 0
	.db #0x00	; 0
	.db #0x00	; 0
	.db #0x00	; 0
	.db #0x00	; 0
	.db #0x00	; 0
	.db #0x00	; 0
	.db #0x00	; 0
	.db #0x00	; 0
	.db #0x00	; 0
	.db #0x00	; 0
	.db #0x00	; 0
	.db #0x00	; 0
	.db #0x00	; 0
	.db #0x00	; 0
	.db #0x00	; 0
	.db #0x00	; 0
	.db #0x00	; 0
	.db #0x00	; 0
	.db #0x00	; 0
	.db #0x00	; 0
	.db #0x00	; 0
	.db #0x00	; 0
	.db #0x00	; 0
	.db #0x00	; 0
	.db #0x00	; 0
	.db #0x00	; 0
	.db #0x00	; 0
	.db #0x00	; 0
	.db #0x00	; 0
	.db #0x00	; 0
	.db #0x00	; 0
	.db #0x00	; 0
	.db #0x00	; 0
	.db #0x00	; 0
	.db #0x00	; 0
	.db #0x00	; 0
	.db #0x00	; 0
	.db #0x00	; 0
	.db #0x00	; 0
	.db #0x00	; 0
	.db #0x00	; 0
	.db #0x00	; 0
	.db #0x00	; 0
	.db #0x00	; 0
	.db #0x00	; 0
	.db #0x00	; 0
	.db #0x00	; 0
	.db #0x00	; 0
	.db #0x00	; 0
	.db #0x00	; 0
	.db #0x00	; 0
	.db #0x00	; 0
	.db #0x00	; 0
	.db #0x00	; 0
	.db #0x00	; 0
	.db #0x00	; 0
	.db #0x00	; 0
	.db #0x00	; 0
	.db #0x00	; 0
	.db #0x00	; 0
	.db #0x00	; 0
	.db #0x00	; 0
	.db #0x00	; 0
	.db #0x00	; 0
	.db #0x00	; 0
	.db #0x00	; 0
	.db #0x00	; 0
	.db #0x00	; 0
	.db #0x00	; 0
	.db #0x00	; 0
	.db #0x00	; 0
	.db #0x00	; 0
	.db #0x00	; 0
	.db #0x00	; 0
	.db #0x00	; 0
	.db #0x00	; 0
	.db #0x00	; 0
	.db #0x00	; 0
	.db #0x00	; 0
	.db #0x00	; 0
	.db #0x00	; 0
	.db #0x00	; 0
	.db #0x00	; 0
	.db #0x00	; 0
	.db #0x00	; 0
	.db #0x00	; 0
	.db #0x00	; 0
	.db #0x00	; 0
	.db #0x00	; 0
	.db #0x00	; 0
	.db #0x00	; 0
	.db #0x00	; 0
	.db #0x00	; 0
	.db #0x00	; 0
	.db #0x00	; 0
	.db #0x00	; 0
	.db #0x00	; 0
	.db #0x00	; 0
	.db #0x00	; 0
	.db #0x00	; 0
	.db #0x00	; 0
	.db #0x00	; 0
	.db #0x00	; 0
	.db #0x00	; 0
	.db #0x00	; 0
	.db #0x00	; 0
	.db #0x00	; 0
	.db #0x00	; 0
	.db #0x00	; 0
	.db #0x00	; 0
	.db #0x00	; 0
	.db #0x00	; 0
	.db #0x00	; 0
	.db #0x00	; 0
	.db #0x00	; 0
	.db #0x00	; 0
	.db #0x00	; 0
	.db #0x00	; 0
	.db #0x00	; 0
	.db #0x00	; 0
	.db #0x00	; 0
	.db #0x00	; 0
	.db #0x00	; 0
	.db #0x00	; 0
	.db #0x00	; 0
	.db #0x00	; 0
	.db #0x00	; 0
	.db #0x00	; 0
	.db #0x00	; 0
	.db #0x00	; 0
	.db #0x00	; 0
	.db #0x00	; 0
	.db #0x00	; 0
	.db #0x00	; 0
	.db #0x00	; 0
	.db #0x00	; 0
	.db #0x00	; 0
	.db #0x00	; 0
	.db #0x00	; 0
	.db #0x00	; 0
	.db #0x00	; 0
	.db #0x00	; 0
	.db #0x00	; 0
	.db #0x00	; 0
	.db #0x00	; 0
	.db #0x00	; 0
	.db #0x00	; 0
	.db #0x00	; 0
	.db #0x00	; 0
	.db #0x00	; 0
	.db #0x00	; 0
	.db #0x00	; 0
	.db #0x00	; 0
	.db #0x00	; 0
	.db #0x00	; 0
	.db #0x00	; 0
	.db #0x00	; 0
	.db #0x00	; 0
	.db #0x00	; 0
	.db #0x00	; 0
	.db #0x00	; 0
	.db #0x00	; 0
	.db #0x00	; 0
	.db #0x00	; 0
	.db #0x00	; 0
	.db #0x00	; 0
	.db #0x00	; 0
	.db #0x00	; 0
	.db #0x00	; 0
	.db #0x00	; 0
	.db #0x00	; 0
	.db #0x00	; 0
	.db #0x00	; 0
	.db #0x00	; 0
	.db #0x00	; 0
	.db #0x00	; 0
	.db #0x00	; 0
	.db #0x00	; 0
	.db #0x00	; 0
	.db #0x00	; 0
	.db #0x00	; 0
	.db #0x00	; 0
	.db #0x00	; 0
	.db #0x00	; 0
	.db #0x00	; 0
	.db #0x00	; 0
	.db #0x00	; 0
	.db #0x00	; 0
	.db #0x00	; 0
	.db #0x00	; 0
	.db #0x00	; 0
	.db #0x00	; 0
	.db #0x00	; 0
	.db #0x00	; 0
	.db #0x00	; 0
	.db #0x00	; 0
	.db #0x00	; 0
	.db #0x00	; 0
	.db #0x00	; 0
	.db #0x00	; 0
	.db #0x00	; 0
	.db #0x00	; 0
	.db #0x00	; 0
	.db #0x00	; 0
	.db #0x00	; 0
	.db #0x00	; 0
	.db #0x03	; 3
	.db #0x00	; 0
	.db #0x00	; 0
	.db #0x00	; 0
	.db #0x00	; 0
	.db #0x00	; 0
	.db #0x00	; 0
	.db #0x00	; 0
	.db #0x00	; 0
	.db #0x00	; 0
	.db #0x00	; 0
	.db #0x00	; 0
	.db #0x00	; 0
	.db #0x00	; 0
	.db #0x00	; 0
	.db #0x00	; 0
	.db #0x00	; 0
	.db #0x00	; 0
	.db #0x00	; 0
	.db #0x00	; 0
	.db #0x00	; 0
	.db #0x00	; 0
	.db #0x00	; 0
	.db #0x00	; 0
	.db #0x00	; 0
	.db #0x00	; 0
	.db #0x00	; 0
	.db #0x00	; 0
	.db #0x00	; 0
	.db #0x00	; 0
	.db #0x00	; 0
	.db #0x02	; 2
	.db #0x00	; 0
	.db #0x05	; 5
	.db #0x00	; 0
	.db #0x00	; 0
	.db #0x00	; 0
	.db #0x00	; 0
	.db #0x00	; 0
	.db #0x00	; 0
	.db #0x03	; 3
	.db #0x00	; 0
	.db #0x00	; 0
	.db #0x00	; 0
	.db #0x00	; 0
	.db #0x00	; 0
	.db #0x00	; 0
	.db #0x00	; 0
	.db #0x00	; 0
	.db #0x00	; 0
	.db #0x00	; 0
	.db #0x00	; 0
	.db #0x00	; 0
	.db #0x00	; 0
	.db #0x00	; 0
	.db #0x00	; 0
	.db #0x00	; 0
	.db #0x00	; 0
	.db #0x00	; 0
	.db #0x00	; 0
	.db #0x00	; 0
	.db #0x00	; 0
	.db #0x02	; 2
	.db #0x00	; 0
	.db #0x00	; 0
	.db #0x00	; 0
	.db #0x05	; 5
	.db #0x00	; 0
	.db #0x00	; 0
	.db #0x00	; 0
	.db #0x00	; 0
	.db #0x02	; 2
	.db #0x00	; 0
	.db #0x05	; 5
	.db #0x00	; 0
	.db #0x00	; 0
	.db #0x00	; 0
	.db #0x00	; 0
	.db #0x00	; 0
	.db #0x00	; 0
	.db #0x00	; 0
	.db #0x00	; 0
	.db #0x00	; 0
	.db #0x00	; 0
	.db #0x00	; 0
	.db #0x00	; 0
	.db #0x00	; 0
	.db #0x00	; 0
	.db #0x00	; 0
	.db #0x00	; 0
	.db #0x00	; 0
	.db #0x00	; 0
	.db #0x00	; 0
	.db #0x02	; 2
	.db #0x00	; 0
	.db #0x00	; 0
	.db #0x00	; 0
	.db #0x00	; 0
	.db #0x00	; 0
	.db #0x05	; 5
	.db #0x00	; 0
	.db #0x00	; 0
	.db #0x02	; 2
	.db #0x00	; 0
	.db #0x00	; 0
	.db #0x00	; 0
	.db #0x05	; 5
	.db #0x00	; 0
	.db #0x00	; 0
	.db #0x00	; 0
	.db #0x00	; 0
	.db #0x00	; 0
	.db #0x00	; 0
	.db #0x00	; 0
	.db #0x00	; 0
	.db #0x00	; 0
	.db #0x00	; 0
	.db #0x00	; 0
	.db #0x00	; 0
	.db #0x00	; 0
	.db #0x00	; 0
	.db #0x00	; 0
	.db #0x00	; 0
	.db #0x00	; 0
	.db #0x02	; 2
	.db #0x00	; 0
	.db #0x00	; 0
	.db #0x00	; 0
	.db #0x00	; 0
	.db #0x00	; 0
	.db #0x00	; 0
	.db #0x00	; 0
	.db #0x05	; 5
	.db #0x02	; 2
	.db #0x00	; 0
	.db #0x00	; 0
	.db #0x00	; 0
	.db #0x00	; 0
	.db #0x00	; 0
	.db #0x05	; 5
	.db #0x00	; 0
	.db #0x00	; 0
	.db #0x00	; 0
	.db #0x00	; 0
	.db #0x00	; 0
	.db #0x00	; 0
	.db #0x00	; 0
	.db #0x00	; 0
	.db #0x00	; 0
	.db #0x00	; 0
	.db #0x00	; 0
	.db #0x00	; 0
	.db #0x00	; 0
	.db #0x00	; 0
	.db #0x00	; 0
	.db #0x02	; 2
	.db #0x00	; 0
	.db #0x00	; 0
	.db #0x00	; 0
	.db #0x00	; 0
	.db #0x00	; 0
	.db #0x00	; 0
	.db #0x00	; 0
	.db #0x00	; 0
	.db #0x00	; 0
	.db #0x05	; 5
	.db #0x00	; 0
	.db #0x00	; 0
	.db #0x00	; 0
	.db #0x00	; 0
	.db #0x00	; 0
	.db #0x00	; 0
	.db #0x05	; 5
	.db #0x00	; 0
	.db #0x00	; 0
	.db #0x00	; 0
	.db #0x00	; 0
	.db #0x00	; 0
	.db #0x00	; 0
	.db #0x00	; 0
	.db #0x00	; 0
	.db #0x00	; 0
	.db #0x00	; 0
	.db #0x00	; 0
	.db #0x00	; 0
	.db #0x00	; 0
	.db #0x02	; 2
	.db #0x00	; 0
	.db #0x00	; 0
	.db #0x00	; 0
	.db #0x00	; 0
	.db #0x00	; 0
	.db #0x00	; 0
	.db #0x00	; 0
	.db #0x00	; 0
	.db #0x00	; 0
	.db #0x00	; 0
	.db #0x00	; 0
	.db #0x05	; 5
	.db #0x00	; 0
	.db #0x00	; 0
	.db #0x00	; 0
	.db #0x00	; 0
	.db #0x00	; 0
	.db #0x00	; 0
	.db #0x05	; 5
	.db #0x00	; 0
	.db #0x00	; 0
	.db #0x00	; 0
	.db #0x00	; 0
	.db #0x00	; 0
	.db #0x00	; 0
	.db #0x00	; 0
	.db #0x00	; 0
	.db #0x00	; 0
	.db #0x00	; 0
	.db #0x01	; 1
	.db #0x01	; 1
	.db #0x01	; 1
	.db #0x01	; 1
	.db #0x01	; 1
	.db #0x01	; 1
	.db #0x01	; 1
	.db #0x01	; 1
	.db #0x01	; 1
	.db #0x01	; 1
	.db #0x01	; 1
	.db #0x01	; 1
	.db #0x01	; 1
	.db #0x01	; 1
	.db #0x01	; 1
	.db #0x01	; 1
	.db #0x01	; 1
	.db #0x01	; 1
	.db #0x01	; 1
	.db #0x01	; 1
	.db #0x01	; 1
	.db #0x01	; 1
	.db #0x01	; 1
	.db #0x01	; 1
	.db #0x01	; 1
	.db #0x01	; 1
	.db #0x01	; 1
	.db #0x01	; 1
	.db #0x01	; 1
	.db #0x01	; 1
	.db #0x01	; 1
	.db #0x01	; 1
	.db #0x01	; 1
	.db #0x01	; 1
	.db #0x01	; 1
	.db #0x01	; 1
	.db #0x01	; 1
	.db #0x01	; 1
	.db #0x01	; 1
	.db #0x01	; 1
	.db #0x01	; 1
	.db #0x01	; 1
	.db #0x01	; 1
	.db #0x01	; 1
	.db #0x01	; 1
	.db #0x01	; 1
	.db #0x01	; 1
	.db #0x01	; 1
	.db #0x01	; 1
	.db #0x01	; 1
	.db #0x01	; 1
	.db #0x01	; 1
	.db #0x01	; 1
	.db #0x01	; 1
	.db #0x01	; 1
	.db #0x01	; 1
	.db #0x01	; 1
	.db #0x01	; 1
	.db #0x01	; 1
	.db #0x01	; 1
	.db #0x01	; 1
	.db #0x01	; 1
	.db #0x01	; 1
	.db #0x01	; 1
__xinit__spritesize:
	.db #0x08	; 8
__xinit__score:
	.db #0x00	; 0
__xinit__gameOver:
	.db #0x00	;  0
__xinit__breads:
	.db #0x00	; 0
__xinit__energy:
	.db #0x0a	; 10
	.area _CABS (ABS)
